; Function Attrs: nounwind uwtable
define dso_local i64 @int8range_canonical(ptr noundef readonly captures(none) %0) local_unnamed_addr #0 {
  %2 = alloca %struct.RangeBound, align 8
  %3 = alloca %struct.RangeBound, align 8
  %4 = alloca i8, align 1
  %5 = getelementptr inbounds nuw i8, ptr %0, i64 32
  %6 = load i64, ptr %5, align 8
  %7 = inttoptr i64 %6 to ptr
  %8 = tail call ptr @pg_detoast_datum(ptr noundef %7) #14
  %9 = getelementptr inbounds nuw i8, ptr %0, i64 8
  %10 = load ptr, ptr %9, align 8
  call void @llvm.lifetime.start.p0(i64 16, ptr nonnull %2) #14
  call void @llvm.lifetime.start.p0(i64 16, ptr nonnull %3) #14
  call void @llvm.lifetime.start.p0(i64 1, ptr nonnull %4) #14
  %11 = getelementptr inbounds nuw i8, ptr %8, i64 4
  %12 = load i32, ptr %11, align 4
  %13 = load ptr, ptr %0, align 8
  %14 = getelementptr inbounds nuw i8, ptr %13, i64 24
  %15 = load ptr, ptr %14, align 8
  %16 = icmp eq ptr %15, null
  br i1 %16, label %19, label %17

17:                                               ; preds = %1
  %18 = load i32, ptr %15, align 8
  %.not.i = icmp eq i32 %18, %12
  br i1 %.not.i, label %range_get_typcache.exit, label %19

19:                                               ; preds = %17, %1
  %20 = tail call ptr @lookup_type_cache(i32 noundef %12, i32 noundef 2048) #14
  %21 = getelementptr inbounds nuw i8, ptr %20, i64 280
  %22 = load ptr, ptr %21, align 8
  %23 = icmp eq ptr %22, null
  br i1 %23, label %24, label %27

24:                                               ; preds = %19
  %25 = tail call zeroext i1 @errstart_cold(i32 noundef 21, ptr noundef null) #16
  tail call void @llvm.assume(i1 %25)
  %26 = tail call i32 (ptr, ...) @errmsg_internal(ptr noundef nonnull @.str.12, i32 noundef %12) #14
  tail call void @errfinish(ptr noundef nonnull @.str.1, i32 noundef 1712, ptr noundef nonnull @__func__.range_get_typcache) #14
  unreachable

27:                                               ; preds = %19
  %28 = load ptr, ptr %0, align 8
  %29 = getelementptr inbounds nuw i8, ptr %28, i64 24
  store ptr %20, ptr %29, align 8
  br label %range_get_typcache.exit

range_get_typcache.exit:                          ; preds = %17, %27
  %.0.i = phi ptr [ %20, %27 ], [ %15, %17 ]
  call void @range_deserialize(ptr noundef nonnull %.0.i, ptr noundef nonnull %8, ptr noundef nonnull %2, ptr noundef nonnull %3, ptr noundef nonnull %4)
  %30 = load i8, ptr %4, align 1, !range !7, !noundef !8
  %31 = trunc nuw i8 %30 to i1
  br i1 %31, label %32, label %34

32:                                               ; preds = %range_get_typcache.exit
  %33 = ptrtoint ptr %8 to i64
  br label %.thread

34:                                               ; preds = %range_get_typcache.exit
  %35 = getelementptr inbounds nuw i8, ptr %2, i64 8
  %36 = load i8, ptr %35, align 8, !range !7, !noundef !8
  %37 = trunc nuw i8 %36 to i1
  br i1 %37, label %51, label %38

38:                                               ; preds = %34
  %39 = getelementptr inbounds nuw i8, ptr %2, i64 9
  %40 = load i8, ptr %39, align 1, !range !7, !noundef !8
  %41 = trunc nuw i8 %40 to i1
  br i1 %41, label %51, label %42

42:                                               ; preds = %38
  %43 = load i64, ptr %2, align 8
  %.not = icmp eq i64 %43, 9223372036854775807
  br i1 %.not, label %44, label %49, !prof !19

44:                                               ; preds = %42
  %45 = tail call zeroext i1 @errsave_start(ptr noundef %10, ptr noundef null) #14
  br i1 %45, label %46, label %.thread

46:                                               ; preds = %44
  %47 = tail call i32 @errcode(i32 noundef 50331778) #14
  %48 = tail call i32 (ptr, ...) @errmsg(ptr noundef nonnull @.str.10) #14
  tail call void @errsave_finish(ptr noundef %10, ptr noundef nonnull @.str.1, i32 noundef 1535, ptr noundef nonnull @__func__.int8range_canonical) #14
  br label %.thread

49:                                               ; preds = %42
  %50 = add nsw i64 %43, 1
  store i64 %50, ptr %2, align 8
  store i8 1, ptr %39, align 1
  br label %51

51:                                               ; preds = %49, %38, %34
  %52 = getelementptr inbounds nuw i8, ptr %3, i64 8
  %53 = load i8, ptr %52, align 8, !range !7, !noundef !8
  %54 = trunc nuw i8 %53 to i1
  br i1 %54, label %68, label %55

55:                                               ; preds = %51
  %56 = getelementptr inbounds nuw i8, ptr %3, i64 9
  %57 = load i8, ptr %56, align 1, !range !7, !noundef !8
  %58 = trunc nuw i8 %57 to i1
  br i1 %58, label %59, label %68

59:                                               ; preds = %55
  %60 = load i64, ptr %3, align 8
  %.not26 = icmp eq i64 %60, 9223372036854775807
  br i1 %.not26, label %61, label %66, !prof !19

61:                                               ; preds = %59
  %62 = tail call zeroext i1 @errsave_start(ptr noundef %10, ptr noundef null) #14
  br i1 %62, label %63, label %.thread

63:                                               ; preds = %61
  %64 = tail call i32 @errcode(i32 noundef 50331778) #14
  %65 = tail call i32 (ptr, ...) @errmsg(ptr noundef nonnull @.str.10) #14
  tail call void @errsave_finish(ptr noundef %10, ptr noundef nonnull @.str.1, i32 noundef 1548, ptr noundef nonnull @__func__.int8range_canonical) #14
  br label %.thread

66:                                               ; preds = %59
  %67 = add nsw i64 %60, 1
  store i64 %67, ptr %3, align 8
  store i8 0, ptr %56, align 1
  br label %68

68:                                               ; preds = %66, %55, %51
  %69 = call ptr @range_serialize(ptr noundef nonnull %.0.i, ptr noundef nonnull %2, ptr noundef nonnull %3, i1 noundef zeroext false, ptr noundef %10)
  %70 = ptrtoint ptr %69 to i64
  br label %.thread

.thread:                                          ; preds = %63, %61, %46, %44, %68, %32
  %.0 = phi i64 [ %33, %32 ], [ %70, %68 ], [ 0, %44 ], [ 0, %46 ], [ 0, %61 ], [ 0, %63 ]
  call void @llvm.lifetime.end.p0(i64 1, ptr nonnull %4) #14
  call void @llvm.lifetime.end.p0(i64 16, ptr nonnull %3) #14
  call void @llvm.lifetime.end.p0(i64 16, ptr nonnull %2) #14
  ret i64 %.0
}